target datalayout = "e-m:e-p270:32:32-p271:32:32-p272:64:64-i64:64-i128:128-f80:128-n8:16:32:64-S128"
target triple = "x86_64-pc-linux-gnu"

; Function Attrs: inlinehint nounwind uwtable
define internal i32 @Extra_WordCountOnes(i32 noundef %0) #2 {
  %2 = alloca i32, align 4
  store i32 %0, ptr %2, align 4, !tbaa !8
  %3 = load i32, ptr %2, align 4, !tbaa !8
  %4 = and i32 %3, 1431655765
  %5 = load i32, ptr %2, align 4, !tbaa !8
  %6 = lshr i32 %5, 1
  %7 = and i32 %6, 1431655765
  %8 = add i32 %4, %7
  store i32 %8, ptr %2, align 4, !tbaa !8
  %9 = load i32, ptr %2, align 4, !tbaa !8
  %10 = and i32 %9, 858993459
  %11 = load i32, ptr %2, align 4, !tbaa !8
  %12 = lshr i32 %11, 2
  %13 = and i32 %12, 858993459
  %14 = add i32 %10, %13
  store i32 %14, ptr %2, align 4, !tbaa !8
  %15 = load i32, ptr %2, align 4, !tbaa !8
  %16 = and i32 %15, 252645135
  %17 = load i32, ptr %2, align 4, !tbaa !8
  %18 = lshr i32 %17, 4
  %19 = and i32 %18, 252645135
  %20 = add i32 %16, %19
  store i32 %20, ptr %2, align 4, !tbaa !8
  %21 = load i32, ptr %2, align 4, !tbaa !8
  %22 = and i32 %21, 16711935
  %23 = load i32, ptr %2, align 4, !tbaa !8
  %24 = lshr i32 %23, 8
  %25 = and i32 %24, 16711935
  %26 = add i32 %22, %25
  store i32 %26, ptr %2, align 4, !tbaa !8
  %27 = load i32, ptr %2, align 4, !tbaa !8
  %28 = and i32 %27, 65535
  %29 = load i32, ptr %2, align 4, !tbaa !8
  %30 = lshr i32 %29, 16
  %31 = add i32 %28, %30
  ret i32 %31
}

; Function Attrs: nounwind uwtable
define i32 @Abc_NtkMfsInterplateEval(ptr noundef %0, ptr noundef %1, i32 noundef %2) #0 {
  %4 = alloca ptr, align 8
  %5 = alloca ptr, align 8
  %6 = alloca i32, align 4
  %7 = alloca ptr, align 8
  %8 = alloca [2 x i32], align 4
  %9 = alloca [2 x i32], align 4
  %10 = alloca i32, align 4
  store ptr %0, ptr %4, align 8, !tbaa !10
  store ptr %1, ptr %5, align 8, !tbaa !12
  store i32 %2, ptr %6, align 4, !tbaa !8
  call void @llvm.lifetime.start.p0(i64 8, ptr %7) #7
  call void @llvm.lifetime.start.p0(i64 8, ptr %8) #7
  call void @llvm.lifetime.start.p0(i64 8, ptr %9) #7
  call void @llvm.lifetime.start.p0(i64 4, ptr %10) #7
  %11 = load ptr, ptr %4, align 8, !tbaa !10
  %12 = load ptr, ptr %5, align 8, !tbaa !12
  %13 = load i32, ptr %6, align 4, !tbaa !8
  %14 = call ptr @Abc_NtkMfsInterplateTruth(ptr noundef %11, ptr noundef %12, i32 noundef %13, i32 noundef 0)
  store ptr %14, ptr %7, align 8, !tbaa !12
  %15 = load i32, ptr %6, align 4, !tbaa !8
  %16 = icmp eq i32 %15, 6
  br i1 %16, label %17, label %26

17:                                               ; preds = %3
  %18 = load ptr, ptr %7, align 8, !tbaa !12
  %19 = getelementptr inbounds i32, ptr %18, i64 0
  %20 = load i32, ptr %19, align 4, !tbaa !8
  %21 = getelementptr inbounds [2 x i32], ptr %9, i64 0, i64 0
  store i32 %20, ptr %21, align 4, !tbaa !8
  %22 = load ptr, ptr %7, align 8, !tbaa !12
  %23 = getelementptr inbounds i32, ptr %22, i64 1
  %24 = load i32, ptr %23, align 4, !tbaa !8
  %25 = getelementptr inbounds [2 x i32], ptr %9, i64 0, i64 1
  store i32 %24, ptr %25, align 4, !tbaa !8
  br label %35

26:                                               ; preds = %3
  %27 = load ptr, ptr %7, align 8, !tbaa !12
  %28 = getelementptr inbounds i32, ptr %27, i64 0
  %29 = load i32, ptr %28, align 4, !tbaa !8
  %30 = getelementptr inbounds [2 x i32], ptr %9, i64 0, i64 0
  store i32 %29, ptr %30, align 4, !tbaa !8
  %31 = load ptr, ptr %7, align 8, !tbaa !12
  %32 = getelementptr inbounds i32, ptr %31, i64 0
  %33 = load i32, ptr %32, align 4, !tbaa !8
  %34 = getelementptr inbounds [2 x i32], ptr %9, i64 0, i64 1
  store i32 %33, ptr %34, align 4, !tbaa !8
  br label %35

35:                                               ; preds = %26, %17
  %36 = load ptr, ptr %4, align 8, !tbaa !10
  %37 = load ptr, ptr %5, align 8, !tbaa !12
  %38 = load i32, ptr %6, align 4, !tbaa !8
  %39 = call ptr @Abc_NtkMfsInterplateTruth(ptr noundef %36, ptr noundef %37, i32 noundef %38, i32 noundef 1)
  store ptr %39, ptr %7, align 8, !tbaa !12
  %40 = load i32, ptr %6, align 4, !tbaa !8
  %41 = icmp eq i32 %40, 6
  br i1 %41, label %42, label %53

42:                                               ; preds = %35
  %43 = load ptr, ptr %7, align 8, !tbaa !12
  %44 = getelementptr inbounds i32, ptr %43, i64 0
  %45 = load i32, ptr %44, align 4, !tbaa !8
  %46 = xor i32 %45, -1
  %47 = getelementptr inbounds [2 x i32], ptr %8, i64 0, i64 0
  store i32 %46, ptr %47, align 4, !tbaa !8
  %48 = load ptr, ptr %7, align 8, !tbaa !12
  %49 = getelementptr inbounds i32, ptr %48, i64 1
  %50 = load i32, ptr %49, align 4, !tbaa !8
  %51 = xor i32 %50, -1
  %52 = getelementptr inbounds [2 x i32], ptr %8, i64 0, i64 1
  store i32 %51, ptr %52, align 4, !tbaa !8
  br label %64

53:                                               ; preds = %35
  %54 = load ptr, ptr %7, align 8, !tbaa !12
  %55 = getelementptr inbounds i32, ptr %54, i64 0
  %56 = load i32, ptr %55, align 4, !tbaa !8
  %57 = xor i32 %56, -1
  %58 = getelementptr inbounds [2 x i32], ptr %8, i64 0, i64 0
  store i32 %57, ptr %58, align 4, !tbaa !8
  %59 = load ptr, ptr %7, align 8, !tbaa !12
  %60 = getelementptr inbounds i32, ptr %59, i64 0
  %61 = load i32, ptr %60, align 4, !tbaa !8
  %62 = xor i32 %61, -1
  %63 = getelementptr inbounds [2 x i32], ptr %8, i64 0, i64 1
  store i32 %62, ptr %63, align 4, !tbaa !8
  br label %64

64:                                               ; preds = %53, %42
  %65 = getelementptr inbounds [2 x i32], ptr %8, i64 0, i64 0
  %66 = load i32, ptr %65, align 4, !tbaa !8
  %67 = getelementptr inbounds [2 x i32], ptr %9, i64 0, i64 0
  %68 = load i32, ptr %67, align 4, !tbaa !8
  %69 = xor i32 %66, %68
  %70 = call i32 @Extra_WordCountOnes(i32 noundef %69)
  store i32 %70, ptr %10, align 4, !tbaa !8
  %71 = getelementptr inbounds [2 x i32], ptr %8, i64 0, i64 1
  %72 = load i32, ptr %71, align 4, !tbaa !8
  %73 = getelementptr inbounds [2 x i32], ptr %9, i64 0, i64 1
  %74 = load i32, ptr %73, align 4, !tbaa !8
  %75 = xor i32 %72, %74
  %76 = call i32 @Extra_WordCountOnes(i32 noundef %75)
  %77 = load i32, ptr %10, align 4, !tbaa !8
  %78 = add nsw i32 %77, %76
  store i32 %78, ptr %10, align 4, !tbaa !8
  %79 = load i32, ptr %10, align 4, !tbaa !8
  call void @llvm.lifetime.end.p0(i64 4, ptr %10) #7
  call void @llvm.lifetime.end.p0(i64 8, ptr %9) #7
  call void @llvm.lifetime.end.p0(i64 8, ptr %8) #7
  call void @llvm.lifetime.end.p0(i64 8, ptr %7) #7
  ret i32 %79
}