; Function Attrs: nounwind uwtable
define range(i32 0, 117) i32 @Abc_NtkMfsInterplateEval(ptr noundef %0, ptr noundef %1, i32 noundef %2) local_unnamed_addr #0 {
  %4 = tail call ptr @Abc_NtkMfsInterplateTruth(ptr noundef %0, ptr noundef %1, i32 noundef %2, i32 noundef 0)
  %5 = icmp eq i32 %2, 6
  br i1 %5, label %6, label %16

6:                                                ; preds = %3
  %7 = getelementptr inbounds nuw i8, ptr %4, i64 4
  %8 = load i32, ptr %7, align 4, !tbaa !3
  %9 = load i32, ptr %4, align 4, !tbaa !3
  %10 = tail call ptr @Abc_NtkMfsInterplateTruth(ptr noundef %0, ptr noundef %1, i32 noundef 6, i32 noundef 1)
  %11 = load i32, ptr %10, align 4, !tbaa !3
  %12 = xor i32 %11, -1
  %13 = getelementptr inbounds nuw i8, ptr %10, i64 4
  %14 = load i32, ptr %13, align 4, !tbaa !3
  %15 = xor i32 %14, -1
  br label %21

16:                                               ; preds = %3
  %17 = load i32, ptr %4, align 4, !tbaa !3
  %18 = tail call ptr @Abc_NtkMfsInterplateTruth(ptr noundef %0, ptr noundef %1, i32 noundef %2, i32 noundef 1)
  %19 = load i32, ptr %18, align 4, !tbaa !3
  %20 = xor i32 %19, -1
  br label %21

21:                                               ; preds = %16, %6
  %.sroa.0.027 = phi i32 [ %9, %6 ], [ %17, %16 ]
  %.sroa.5.025 = phi i32 [ %8, %6 ], [ %17, %16 ]
  %.sroa.53.0 = phi i32 [ %15, %6 ], [ %20, %16 ]
  %.sroa.02.0 = phi i32 [ %12, %6 ], [ %20, %16 ]
  %22 = xor i32 %.sroa.02.0, %.sroa.0.027
  %23 = and i32 %22, 1431655765
  %24 = lshr i32 %22, 1
  %25 = and i32 %24, 1431655765
  %26 = add nuw i32 %25, %23
  %27 = and i32 %26, 858993459
  %28 = lshr i32 %26, 2
  %29 = and i32 %28, 858993459
  %30 = add nuw nsw i32 %29, %27
  %31 = and i32 %30, 117901063
  %32 = lshr i32 %30, 4
  %33 = and i32 %32, 117901063
  %34 = add nuw nsw i32 %33, %31
  %35 = and i32 %34, 983055
  %36 = lshr i32 %34, 8
  %37 = and i32 %36, 983055
  %38 = add nuw nsw i32 %37, %35
  %39 = and i32 %38, 31
  %40 = lshr i32 %38, 16
  %41 = xor i32 %.sroa.53.0, %.sroa.5.025
  %42 = and i32 %41, 1431655765
  %43 = lshr i32 %41, 1
  %44 = and i32 %43, 1431655765
  %45 = add nuw i32 %44, %42
  %46 = and i32 %45, 858993459
  %47 = lshr i32 %45, 2
  %48 = and i32 %47, 858993459
  %49 = add nuw nsw i32 %48, %46
  %50 = and i32 %49, 117901063
  %51 = lshr i32 %49, 4
  %52 = and i32 %51, 117901063
  %53 = add nuw nsw i32 %52, %50
  %54 = and i32 %53, 983055
  %55 = lshr i32 %53, 8
  %56 = and i32 %55, 983055
  %57 = add nuw nsw i32 %56, %54
  %58 = and i32 %57, 31
  %59 = lshr i32 %57, 16
  %60 = add nuw nsw i32 %58, %59
  %61 = add nuw nsw i32 %60, %40
  %62 = add nuw nsw i32 %61, %39
  ret i32 %62
}